; Function Attrs: mustprogress nofree norecurse nosync nounwind memory(argmem: readwrite) uwtable
define void @_ZN6casadi16SparsityInternal9postorderEPKxxPxS3_(ptr nocapture noundef readonly %0, i64 noundef %1, ptr nocapture noundef writeonly %2, ptr nocapture noundef %3) local_unnamed_addr #3 align 2 {
  %5 = getelementptr inbounds i64, ptr %3, i64 %1
  %6 = getelementptr inbounds i64, ptr %5, i64 %1
  %7 = icmp sgt i64 %1, 0
  br i1 %7, label %.lr.ph46.preheader, label %._crit_edge

.lr.ph46.preheader:                               ; preds = %4
  %8 = shl nuw i64 %1, 3
  tail call void @llvm.memset.p0.i64(ptr align 8 %3, i8 -1, i64 %8, i1 false)
  br label %.lr.ph46

.preheader:                                       ; preds = %17
  br i1 %7, label %.lr.ph49, label %._crit_edge

.lr.ph46:                                         ; preds = %.lr.ph46.preheader, %17
  %.145.in = phi i64 [ %.145, %17 ], [ %1, %.lr.ph46.preheader ]
  %.145 = add nsw i64 %.145.in, -1
  %9 = getelementptr inbounds i64, ptr %0, i64 %.145
  %10 = load i64, ptr %9, align 8
  %.not = icmp eq i64 %10, -1
  br i1 %.not, label %17, label %11

11:                                               ; preds = %.lr.ph46
  %12 = getelementptr inbounds i64, ptr %3, i64 %10
  %13 = load i64, ptr %12, align 8
  %14 = getelementptr inbounds i64, ptr %5, i64 %.145
  store i64 %13, ptr %14, align 8
  %15 = load i64, ptr %9, align 8
  %16 = getelementptr inbounds i64, ptr %3, i64 %15
  store i64 %.145, ptr %16, align 8
  br label %17

17:                                               ; preds = %.lr.ph46, %11
  %18 = icmp ugt i64 %.145.in, 1
  br i1 %18, label %.lr.ph46, label %.preheader, !llvm.loop !9

.lr.ph49:                                         ; preds = %.preheader, %_ZN6casadi16SparsityInternal13postorder_dfsExxPxPKxS1_S1_.exit
  %.248 = phi i64 [ %40, %_ZN6casadi16SparsityInternal13postorder_dfsExxPxPKxS1_S1_.exit ], [ 0, %.preheader ]
  %.03847 = phi i64 [ %.139, %_ZN6casadi16SparsityInternal13postorder_dfsExxPxPKxS1_S1_.exit ], [ 0, %.preheader ]
  %19 = getelementptr inbounds i64, ptr %0, i64 %.248
  %20 = load i64, ptr %19, align 8
  %21 = icmp eq i64 %20, -1
  br i1 %21, label %22, label %_ZN6casadi16SparsityInternal13postorder_dfsExxPxPKxS1_S1_.exit

22:                                               ; preds = %.lr.ph49
  store i64 %.248, ptr %6, align 8
  br label %23

23:                                               ; preds = %38, %22
  %.023.i = phi i64 [ 0, %22 ], [ %.1.i, %38 ]
  %.01922.i = phi i64 [ %.03847, %22 ], [ %.120.i, %38 ]
  %24 = getelementptr inbounds i64, ptr %6, i64 %.023.i
  %25 = load i64, ptr %24, align 8
  %26 = getelementptr inbounds i64, ptr %3, i64 %25
  %27 = load i64, ptr %26, align 8
  %28 = icmp eq i64 %27, -1
  br i1 %28, label %29, label %33

29:                                               ; preds = %23
  %30 = add nsw i64 %.023.i, -1
  %31 = add nsw i64 %.01922.i, 1
  %32 = getelementptr inbounds i64, ptr %2, i64 %.01922.i
  store i64 %25, ptr %32, align 8
  br label %38

33:                                               ; preds = %23
  %34 = getelementptr inbounds i64, ptr %5, i64 %27
  %35 = load i64, ptr %34, align 8
  store i64 %35, ptr %26, align 8
  %36 = add nuw nsw i64 %.023.i, 1
  %37 = getelementptr inbounds i64, ptr %6, i64 %36
  store i64 %27, ptr %37, align 8
  br label %38

38:                                               ; preds = %33, %29
  %.120.i = phi i64 [ %31, %29 ], [ %.01922.i, %33 ]
  %.1.i = phi i64 [ %30, %29 ], [ %36, %33 ]
  %39 = icmp sgt i64 %.1.i, -1
  br i1 %39, label %23, label %_ZN6casadi16SparsityInternal13postorder_dfsExxPxPKxS1_S1_.exit, !llvm.loop !8

_ZN6casadi16SparsityInternal13postorder_dfsExxPxPKxS1_S1_.exit: ; preds = %38, %.lr.ph49
  %.139 = phi i64 [ %.03847, %.lr.ph49 ], [ %.120.i, %38 ]
  %40 = add nuw nsw i64 %.248, 1
  %exitcond.not = icmp eq i64 %40, %1
  br i1 %exitcond.not, label %._crit_edge, label %.lr.ph49, !llvm.loop !10

._crit_edge:                                      ; preds = %_ZN6casadi16SparsityInternal13postorder_dfsExxPxPKxS1_S1_.exit, %4, %.preheader
  ret void
}